; Function Attrs: nounwind uwtable
define noundef ptr @SUNSparseMatrix(i64 noundef %0, i64 noundef %1, i64 noundef %2, i32 noundef %3, ptr noundef %4) local_unnamed_addr #0 {
  %6 = tail call ptr @SUNMatNewEmpty(ptr noundef %4) #17
  %7 = getelementptr inbounds nuw i8, ptr %6, i64 8
  %8 = load ptr, ptr %7, align 8, !tbaa !3
  store ptr @SUNMatGetID_Sparse, ptr %8, align 8, !tbaa !10
  %9 = getelementptr inbounds nuw i8, ptr %8, i64 8
  store ptr @SUNMatClone_Sparse, ptr %9, align 8, !tbaa !12
  %10 = getelementptr inbounds nuw i8, ptr %8, i64 16
  store ptr @SUNMatDestroy_Sparse, ptr %10, align 8, !tbaa !13
  %11 = getelementptr inbounds nuw i8, ptr %8, i64 24
  store ptr @SUNMatZero_Sparse, ptr %11, align 8, !tbaa !14
  %12 = getelementptr inbounds nuw i8, ptr %8, i64 32
  store ptr @SUNMatCopy_Sparse, ptr %12, align 8, !tbaa !15
  %13 = getelementptr inbounds nuw i8, ptr %8, i64 40
  store ptr @SUNMatScaleAdd_Sparse, ptr %13, align 8, !tbaa !16
  %14 = getelementptr inbounds nuw i8, ptr %8, i64 48
  store ptr @SUNMatScaleAddI_Sparse, ptr %14, align 8, !tbaa !17
  %15 = getelementptr inbounds nuw i8, ptr %8, i64 64
  store ptr @SUNMatMatvec_Sparse, ptr %15, align 8, !tbaa !18
  %16 = getelementptr inbounds nuw i8, ptr %8, i64 72
  store ptr @SUNMatSpace_Sparse, ptr %16, align 8, !tbaa !19
  %17 = tail call noalias dereferenceable_or_null(96) ptr @malloc(i64 noundef 96) #18
  store ptr %17, ptr %6, align 8, !tbaa !20
  %18 = getelementptr inbounds nuw i8, ptr %17, i64 40
  store i32 %3, ptr %18, align 8, !tbaa !21
  store i64 %0, ptr %17, align 8, !tbaa !28
  %19 = getelementptr inbounds nuw i8, ptr %17, i64 8
  store i64 %1, ptr %19, align 8, !tbaa !29
  %20 = getelementptr inbounds nuw i8, ptr %17, i64 16
  store i64 %2, ptr %20, align 8, !tbaa !30
  %switch = icmp eq i32 %3, 0
  br i1 %switch, label %.sink.split, label %21

21:                                               ; preds = %5
  br label %.sink.split

.sink.split:                                      ; preds = %5, %21
  %.sink = phi i64 [ %0, %21 ], [ %1, %5 ]
  %.sink54 = phi i64 [ 80, %21 ], [ 64, %5 ]
  %.sink52 = phi i64 [ 88, %21 ], [ 72, %5 ]
  %.sink50 = phi i64 [ 64, %21 ], [ 80, %5 ]
  %22 = getelementptr inbounds nuw i8, ptr %17, i64 24
  store i64 %.sink, ptr %22, align 8, !tbaa !31
  %23 = getelementptr inbounds nuw i8, ptr %17, i64 48
  %24 = getelementptr inbounds nuw i8, ptr %17, i64 %.sink54
  store ptr %23, ptr %24, align 8, !tbaa !32
  %25 = getelementptr inbounds nuw i8, ptr %17, i64 56
  %26 = getelementptr inbounds nuw i8, ptr %17, i64 %.sink52
  store ptr %25, ptr %26, align 8, !tbaa !32
  %27 = getelementptr inbounds nuw i8, ptr %17, i64 %.sink50
  tail call void @llvm.memset.p0.i64(ptr noundef nonnull align 8 dereferenceable(16) %27, i8 0, i64 16, i1 false)
  %28 = add nsw i64 %.sink, 1
  %29 = getelementptr inbounds nuw i8, ptr %17, i64 32
  %30 = getelementptr inbounds nuw i8, ptr %17, i64 48
  %31 = getelementptr inbounds nuw i8, ptr %17, i64 56
  %32 = tail call noalias ptr @calloc(i64 noundef %2, i64 noundef 8) #19
  store ptr %32, ptr %29, align 8, !tbaa !33
  %33 = tail call noalias ptr @calloc(i64 noundef %2, i64 noundef 8) #19
  store ptr %33, ptr %30, align 8, !tbaa !34
  %34 = tail call noalias ptr @calloc(i64 noundef %28, i64 noundef 8) #19
  store ptr %34, ptr %31, align 8, !tbaa !35
  ret ptr %6
}